target datalayout = "e-m:e-p270:32:32-p271:32:32-p272:64:64-i64:64-i128:128-f80:128-n8:16:32:64-S128"
target triple = "x86_64-unknown-linux-gnu"

%class.mpf = type { i32, %class.mpz, i64 }
%class.mpz = type { i32, i8, ptr }
%class.mpf_manager = type { %class.mpq_manager, ptr, %"class.mpf_manager::powers2" }
%class.mpq_manager = type { %class.mpz_manager, %class.mpz, %class.mpz, %class.mpz, %class.mpz, %class.mpq, %class.mpq }
%class.mpz_manager = type { %class.small_object_allocator, %"class.std::recursive_mutex", %class.mpn_manager, i32, %class.mpz, %class.mpz }
%class.small_object_allocator = type { [32 x ptr], [32 x ptr], i64 }
%"class.std::recursive_mutex" = type { %"class.std::__recursive_mutex_base" }
%"class.std::__recursive_mutex_base" = type { %union.pthread_mutex_t }
%union.pthread_mutex_t = type { %struct.__pthread_mutex_s }
%struct.__pthread_mutex_s = type { i32, i32, i32, i32, i32, i16, i16, %struct.__pthread_internal_list }
%struct.__pthread_internal_list = type { ptr, ptr }
%class.mpn_manager = type { i8 }
%class.mpq = type { %class.mpz, %class.mpz }
%"class.mpf_manager::powers2" = type { ptr, %class.u_map, %class.u_map, %class.u_map, %class.u_map }
%class.u_map = type { %class.map }
%class.map = type { %class.table2map }
%class.table2map = type { %class.core_hashtable }
%class.core_hashtable = type <{ ptr, i32, i32, i32, [4 x i8] }>
%class.mpz_cell = type { i32, i32, [0 x i32] }

@.str.2 = private unnamed_addr constant [100 x i8] c"generated/home/dtcxzyw/WorkSpace/Projects/compilers/llvm-opt-benchmark/bench/z3/z3/src/util/mpf.cpp\00", align 1
@.str.3 = private unnamed_addr constant [29 x i8] c"UNEXPECTED CODE WAS REACHED.\00", align 1

; Function Attrs: mustprogress nounwind uwtable
define linkonce_odr hidden void @_ZN3mpzC2Ei(ptr noundef nonnull align 8 dereferenceable(16) %this, i32 noundef %v) unnamed_addr #5 comdat align 2 {
entry:
  %this.addr = alloca ptr, align 8
  %v.addr = alloca i32, align 4
  store ptr %this, ptr %this.addr, align 8
  store i32 %v, ptr %v.addr, align 4
  %this1 = load ptr, ptr %this.addr, align 8
  %m_val = getelementptr inbounds %class.mpz, ptr %this1, i32 0, i32 0
  %0 = load i32, ptr %v.addr, align 4
  store i32 %0, ptr %m_val, align 8
  %m_kind = getelementptr inbounds %class.mpz, ptr %this1, i32 0, i32 1
  %bf.load = load i8, ptr %m_kind, align 4
  %bf.clear = and i8 %bf.load, -2
  %bf.set = or i8 %bf.clear, 0
  store i8 %bf.set, ptr %m_kind, align 4
  %m_owner = getelementptr inbounds %class.mpz, ptr %this1, i32 0, i32 1
  %bf.load2 = load i8, ptr %m_owner, align 4
  %bf.clear3 = and i8 %bf.load2, -3
  %bf.set4 = or i8 %bf.clear3, 0
  store i8 %bf.set4, ptr %m_owner, align 4
  %m_ptr = getelementptr inbounds %class.mpz, ptr %this1, i32 0, i32 2
  store ptr null, ptr %m_ptr, align 8
  ret void
}

; Function Attrs: mustprogress nounwind uwtable
define linkonce_odr hidden noundef ptr @_ZN11mpz_managerILb0EE6digitsERK3mpz(ptr noundef nonnull align 8 dereferenceable(16) %c) #5 comdat align 2 {
entry:
  %c.addr = alloca ptr, align 8
  store ptr %c, ptr %c.addr, align 8
  %0 = load ptr, ptr %c.addr, align 8
  %m_ptr = getelementptr inbounds %class.mpz, ptr %0, i32 0, i32 2
  %1 = load ptr, ptr %m_ptr, align 8
  %m_digits = getelementptr inbounds %class.mpz_cell, ptr %1, i32 0, i32 2
  %arraydecay = getelementptr inbounds [0 x i32], ptr %m_digits, i64 0, i64 0
  ret ptr %arraydecay
}

; Function Attrs: mustprogress nounwind uwtable
define linkonce_odr hidden noundef zeroext i1 @_ZN11mpz_managerILb0EE8is_smallERK3mpz(ptr noundef nonnull align 8 dereferenceable(16) %a) #5 comdat align 2 {
entry:
  %a.addr = alloca ptr, align 8
  store ptr %a, ptr %a.addr, align 8
  %0 = load ptr, ptr %a.addr, align 8
  %m_kind = getelementptr inbounds %class.mpz, ptr %0, i32 0, i32 1
  %bf.load = load i8, ptr %m_kind, align 4
  %bf.clear = and i8 %bf.load, 1
  %bf.cast = zext i8 %bf.clear to i32
  %cmp = icmp eq i32 %bf.cast, 0
  ret i1 %cmp
}

; Function Attrs: mustprogress uwtable
define linkonce_odr hidden void @_ZN11mpz_managerILb0EE3incER3mpz(ptr noundef nonnull align 8 dereferenceable(600) %this, ptr noundef nonnull align 8 dereferenceable(16) %a) #4 comdat align 2 {
entry:
  %this.addr = alloca ptr, align 8
  %a.addr = alloca ptr, align 8
  %ref.tmp = alloca %class.mpz, align 8
  store ptr %this, ptr %this.addr, align 8
  store ptr %a, ptr %a.addr, align 8
  %this1 = load ptr, ptr %this.addr, align 8
  %0 = load ptr, ptr %a.addr, align 8
  call void @_ZN3mpzC2Ei(ptr noundef nonnull align 8 dereferenceable(16) %ref.tmp, i32 noundef 1)
  %1 = load ptr, ptr %a.addr, align 8
  call void @_ZN11mpz_managerILb0EE3addERK3mpzS3_RS1_(ptr noundef nonnull align 8 dereferenceable(600) %this1, ptr noundef nonnull align 8 dereferenceable(16) %0, ptr noundef nonnull align 8 dereferenceable(16) %ref.tmp, ptr noundef nonnull align 8 dereferenceable(16) %1)
  ret void
}

; Function Attrs: mustprogress uwtable
define linkonce_odr hidden noundef zeroext i1 @_ZN11mpz_managerILb0EE7is_evenERK3mpz(ptr noundef nonnull align 8 dereferenceable(600) %this, ptr noundef nonnull align 8 dereferenceable(16) %a) #4 comdat align 2 {
entry:
  %retval = alloca i1, align 1
  %this.addr = alloca ptr, align 8
  %a.addr = alloca ptr, align 8
  store ptr %this, ptr %this.addr, align 8
  store ptr %a, ptr %a.addr, align 8
  %0 = load ptr, ptr %a.addr, align 8
  %call = call noundef zeroext i1 @_ZN11mpz_managerILb0EE8is_smallERK3mpz(ptr noundef nonnull align 8 dereferenceable(16) %0)
  br i1 %call, label %if.then, label %if.end

if.then:                                          ; preds = %entry
  %1 = load ptr, ptr %a.addr, align 8
  %m_val = getelementptr inbounds %class.mpz, ptr %1, i32 0, i32 0
  %2 = load i32, ptr %m_val, align 8
  %and = and i32 %2, 1
  %tobool = icmp ne i32 %and, 0
  %lnot = xor i1 %tobool, true
  store i1 %lnot, ptr %retval, align 1
  br label %return

if.end:                                           ; preds = %entry
  %3 = load ptr, ptr %a.addr, align 8
  %call2 = call noundef ptr @_ZN11mpz_managerILb0EE6digitsERK3mpz(ptr noundef nonnull align 8 dereferenceable(16) %3)
  %arrayidx = getelementptr inbounds i32, ptr %call2, i64 0
  %4 = load i32, ptr %arrayidx, align 4
  %and3 = and i32 1, %4
  %tobool4 = icmp ne i32 %and3, 0
  %lnot5 = xor i1 %tobool4, true
  store i1 %lnot5, ptr %retval, align 1
  br label %return

return:                                           ; preds = %if.end, %if.then
  %5 = load i1, ptr %retval, align 1
  ret i1 %5
}

; Function Attrs: mustprogress uwtable
define hidden void @_ZN11mpf_manager10round_sqrtE17mpf_rounding_modeR3mpf(ptr noundef nonnull align 8 dereferenceable(840) %this, i32 noundef %rm, ptr noundef nonnull align 8 dereferenceable(32) %o) #4 align 2 {
entry:
  %this.addr = alloca ptr, align 8
  %rm.addr = alloca i32, align 4
  %o.addr = alloca ptr, align 8
  %sticky = alloca i8, align 1
  %round = alloca i8, align 1
  %last = alloca i8, align 1
  %inc = alloca i8, align 1
  store ptr %this, ptr %this.addr, align 8
  store i32 %rm, ptr %rm.addr, align 4
  store ptr %o, ptr %o.addr, align 8
  %this1 = load ptr, ptr %this.addr, align 8
  %m_mpz_manager = getelementptr inbounds %class.mpf_manager, ptr %this1, i32 0, i32 1
  %0 = load ptr, ptr %m_mpz_manager, align 8
  %1 = load ptr, ptr %o.addr, align 8
  %significand = getelementptr inbounds %class.mpf, ptr %1, i32 0, i32 1
  %call = call noundef zeroext i1 @_ZN11mpz_managerILb0EE7is_evenERK3mpz(ptr noundef nonnull align 8 dereferenceable(600) %0, ptr noundef nonnull align 8 dereferenceable(16) %significand)
  %lnot = xor i1 %call, true
  %frombool = zext i1 %lnot to i8
  store i8 %frombool, ptr %sticky, align 1
  %m_mpz_manager2 = getelementptr inbounds %class.mpf_manager, ptr %this1, i32 0, i32 1
  %2 = load ptr, ptr %m_mpz_manager2, align 8
  %3 = load ptr, ptr %o.addr, align 8
  %significand3 = getelementptr inbounds %class.mpf, ptr %3, i32 0, i32 1
  call void @_ZN11mpz_managerILb0EE13machine_div2kER3mpzj(ptr noundef nonnull align 8 dereferenceable(600) %2, ptr noundef nonnull align 8 dereferenceable(16) %significand3, i32 noundef 1)
  %4 = load i8, ptr %sticky, align 1
  %tobool = trunc i8 %4 to i1
  br i1 %tobool, label %lor.end, label %lor.rhs

lor.rhs:                                          ; preds = %entry
  %m_mpz_manager4 = getelementptr inbounds %class.mpf_manager, ptr %this1, i32 0, i32 1
  %5 = load ptr, ptr %m_mpz_manager4, align 8
  %6 = load ptr, ptr %o.addr, align 8
  %significand5 = getelementptr inbounds %class.mpf, ptr %6, i32 0, i32 1
  %call6 = call noundef zeroext i1 @_ZN11mpz_managerILb0EE7is_evenERK3mpz(ptr noundef nonnull align 8 dereferenceable(600) %5, ptr noundef nonnull align 8 dereferenceable(16) %significand5)
  %lnot7 = xor i1 %call6, true
  br label %lor.end

lor.end:                                          ; preds = %lor.rhs, %entry
  %7 = phi i1 [ true, %entry ], [ %lnot7, %lor.rhs ]
  %frombool8 = zext i1 %7 to i8
  store i8 %frombool8, ptr %sticky, align 1
  %m_mpz_manager9 = getelementptr inbounds %class.mpf_manager, ptr %this1, i32 0, i32 1
  %8 = load ptr, ptr %m_mpz_manager9, align 8
  %9 = load ptr, ptr %o.addr, align 8
  %significand10 = getelementptr inbounds %class.mpf, ptr %9, i32 0, i32 1
  call void @_ZN11mpz_managerILb0EE13machine_div2kER3mpzj(ptr noundef nonnull align 8 dereferenceable(600) %8, ptr noundef nonnull align 8 dereferenceable(16) %significand10, i32 noundef 1)
  %m_mpz_manager11 = getelementptr inbounds %class.mpf_manager, ptr %this1, i32 0, i32 1
  %10 = load ptr, ptr %m_mpz_manager11, align 8
  %11 = load ptr, ptr %o.addr, align 8
  %significand12 = getelementptr inbounds %class.mpf, ptr %11, i32 0, i32 1
  %call13 = call noundef zeroext i1 @_ZN11mpz_managerILb0EE7is_evenERK3mpz(ptr noundef nonnull align 8 dereferenceable(600) %10, ptr noundef nonnull align 8 dereferenceable(16) %significand12)
  %lnot14 = xor i1 %call13, true
  %frombool15 = zext i1 %lnot14 to i8
  store i8 %frombool15, ptr %round, align 1
  %m_mpz_manager16 = getelementptr inbounds %class.mpf_manager, ptr %this1, i32 0, i32 1
  %12 = load ptr, ptr %m_mpz_manager16, align 8
  %13 = load ptr, ptr %o.addr, align 8
  %significand17 = getelementptr inbounds %class.mpf, ptr %13, i32 0, i32 1
  call void @_ZN11mpz_managerILb0EE13machine_div2kER3mpzj(ptr noundef nonnull align 8 dereferenceable(600) %12, ptr noundef nonnull align 8 dereferenceable(16) %significand17, i32 noundef 1)
  %m_mpz_manager18 = getelementptr inbounds %class.mpf_manager, ptr %this1, i32 0, i32 1
  %14 = load ptr, ptr %m_mpz_manager18, align 8
  %15 = load ptr, ptr %o.addr, align 8
  %significand19 = getelementptr inbounds %class.mpf, ptr %15, i32 0, i32 1
  %call20 = call noundef zeroext i1 @_ZN11mpz_managerILb0EE7is_evenERK3mpz(ptr noundef nonnull align 8 dereferenceable(600) %14, ptr noundef nonnull align 8 dereferenceable(16) %significand19)
  %lnot21 = xor i1 %call20, true
  %frombool22 = zext i1 %lnot21 to i8
  store i8 %frombool22, ptr %last, align 1
  store i8 0, ptr %inc, align 1
  %16 = load i32, ptr %rm.addr, align 4
  switch i32 %16, label %sw.default [
    i32 0, label %sw.bb
    i32 1, label %sw.bb
    i32 3, label %sw.bb26
    i32 4, label %sw.bb27
    i32 2, label %sw.bb28
  ]

sw.bb:                                            ; preds = %lor.end, %lor.end
  %17 = load i8, ptr %round, align 1
  %tobool23 = trunc i8 %17 to i1
  br i1 %tobool23, label %land.rhs, label %land.end

land.rhs:                                         ; preds = %sw.bb
  %18 = load i8, ptr %sticky, align 1
  %tobool24 = trunc i8 %18 to i1
  br label %land.end

land.end:                                         ; preds = %land.rhs, %sw.bb
  %19 = phi i1 [ false, %sw.bb ], [ %tobool24, %land.rhs ]
  %frombool25 = zext i1 %19 to i8
  store i8 %frombool25, ptr %inc, align 1
  br label %sw.epilog

sw.bb26:                                          ; preds = %lor.end
  br label %sw.epilog

sw.bb27:                                          ; preds = %lor.end
  br label %sw.epilog

sw.bb28:                                          ; preds = %lor.end
  %20 = load i8, ptr %round, align 1
  %tobool29 = trunc i8 %20 to i1
  br i1 %tobool29, label %lor.end32, label %lor.rhs30

lor.rhs30:                                        ; preds = %sw.bb28
  %21 = load i8, ptr %sticky, align 1
  %tobool31 = trunc i8 %21 to i1
  br label %lor.end32

lor.end32:                                        ; preds = %lor.rhs30, %sw.bb28
  %22 = phi i1 [ true, %sw.bb28 ], [ %tobool31, %lor.rhs30 ]
  %frombool33 = zext i1 %22 to i8
  store i8 %frombool33, ptr %inc, align 1
  br label %sw.epilog

sw.default:                                       ; preds = %lor.end
  call void @_Z26notify_assertion_violationPKciS0_(ptr noundef @.str.2, i32 noundef 2118, ptr noundef @.str.3)
  call void @exit(i32 noundef 114) #11
  unreachable

sw.epilog:                                        ; preds = %lor.end32, %sw.bb27, %sw.bb26, %land.end
  %23 = load i8, ptr %inc, align 1
  %tobool34 = trunc i8 %23 to i1
  br i1 %tobool34, label %if.then, label %if.end

if.then:                                          ; preds = %sw.epilog
  %m_mpz_manager35 = getelementptr inbounds %class.mpf_manager, ptr %this1, i32 0, i32 1
  %24 = load ptr, ptr %m_mpz_manager35, align 8
  %25 = load ptr, ptr %o.addr, align 8
  %significand36 = getelementptr inbounds %class.mpf, ptr %25, i32 0, i32 1
  call void @_ZN11mpz_managerILb0EE3incER3mpz(ptr noundef nonnull align 8 dereferenceable(600) %24, ptr noundef nonnull align 8 dereferenceable(16) %significand36)
  br label %if.end

if.end:                                           ; preds = %if.then, %sw.epilog
  %m_mpz_manager37 = getelementptr inbounds %class.mpf_manager, ptr %this1, i32 0, i32 1
  %26 = load ptr, ptr %m_mpz_manager37, align 8
  %27 = load ptr, ptr %o.addr, align 8
  %significand38 = getelementptr inbounds %class.mpf, ptr %27, i32 0, i32 1
  %m_powers2 = getelementptr inbounds %class.mpf_manager, ptr %this1, i32 0, i32 2
  %28 = load ptr, ptr %o.addr, align 8
  %bf.load = load i32, ptr %28, align 8
  %bf.lshr = lshr i32 %bf.load, 15
  %bf.clear = and i32 %bf.lshr, 65535
  %sub = sub nsw i32 %bf.clear, 1
  %call39 = call noundef nonnull align 8 dereferenceable(16) ptr @_ZN11mpf_manager7powers2clEjb(ptr noundef nonnull align 8 dereferenceable(104) %m_powers2, i32 noundef %sub, i1 noundef zeroext false)
  %29 = load ptr, ptr %o.addr, align 8
  %significand40 = getelementptr inbounds %class.mpf, ptr %29, i32 0, i32 1
  call void @_ZN11mpz_managerILb0EE3subERK3mpzS3_RS1_(ptr noundef nonnull align 8 dereferenceable(600) %26, ptr noundef nonnull align 8 dereferenceable(16) %significand38, ptr noundef nonnull align 8 dereferenceable(16) %call39, ptr noundef nonnull align 8 dereferenceable(16) %significand40)
  ret void
}