; Function Attrs: mustprogress uwtable
define hidden void @_ZN11mpf_manager10round_sqrtE17mpf_rounding_modeR3mpf(ptr noundef nonnull align 8 dereferenceable(840) %this, i32 noundef %rm, ptr noundef nonnull align 8 dereferenceable(32) %o) local_unnamed_addr #5 align 2 {
entry:
  %ref.tmp.i = alloca %class.mpz, align 8
  %m_mpz_manager = getelementptr inbounds i8, ptr %this, i64 728
  %significand = getelementptr inbounds i8, ptr %o, i64 8
  %m_kind.i.i = getelementptr inbounds i8, ptr %o, i64 12
  %bf.load.i.i = load i8, ptr %m_kind.i.i, align 4
  %bf.clear.i.i = and i8 %bf.load.i.i, 1
  %cmp.i.i = icmp eq i8 %bf.clear.i.i, 0
  %m_ptr.i.i = getelementptr inbounds i8, ptr %o, i64 16
  %0 = load ptr, ptr %m_ptr.i.i, align 8
  %m_digits.i.i = getelementptr inbounds i8, ptr %0, i64 8
  %retval.0.in.in.in.i = select i1 %cmp.i.i, ptr %significand, ptr %m_digits.i.i
  %retval.0.in.in.i = load i32, ptr %retval.0.in.in.in.i, align 4
  %retval.0.in.i = and i32 %retval.0.in.in.i, 1
  %retval.0.i = icmp eq i32 %retval.0.in.i, 0
  %1 = load ptr, ptr %m_mpz_manager, align 8
  tail call void @_ZN11mpz_managerILb0EE13machine_div2kER3mpzj(ptr noundef nonnull align 8 dereferenceable(600) %1, ptr noundef nonnull align 8 dereferenceable(16) %significand, i32 noundef 1)
  br i1 %retval.0.i, label %lor.rhs, label %lor.end

lor.rhs:                                          ; preds = %entry
  %bf.load.i.i15 = load i8, ptr %m_kind.i.i, align 4
  %bf.clear.i.i16 = and i8 %bf.load.i.i15, 1
  %cmp.i.i17 = icmp eq i8 %bf.clear.i.i16, 0
  %2 = load ptr, ptr %m_ptr.i.i, align 8
  %m_digits.i.i19 = getelementptr inbounds i8, ptr %2, i64 8
  %retval.0.in.in.in.i20 = select i1 %cmp.i.i17, ptr %significand, ptr %m_digits.i.i19
  %retval.0.in.in.i21 = load i32, ptr %retval.0.in.in.in.i20, align 4
  %retval.0.in.i22 = and i32 %retval.0.in.in.i21, 1
  %retval.0.i23 = icmp ne i32 %retval.0.in.i22, 0
  br label %lor.end

lor.end:                                          ; preds = %lor.rhs, %entry
  %3 = phi i1 [ true, %entry ], [ %retval.0.i23, %lor.rhs ]
  %4 = load ptr, ptr %m_mpz_manager, align 8
  tail call void @_ZN11mpz_managerILb0EE13machine_div2kER3mpzj(ptr noundef nonnull align 8 dereferenceable(600) %4, ptr noundef nonnull align 8 dereferenceable(16) %significand, i32 noundef 1)
  %bf.load.i.i25 = load i8, ptr %m_kind.i.i, align 4
  %bf.clear.i.i26 = and i8 %bf.load.i.i25, 1
  %cmp.i.i27 = icmp eq i8 %bf.clear.i.i26, 0
  %5 = load ptr, ptr %m_ptr.i.i, align 8
  %m_digits.i.i29 = getelementptr inbounds i8, ptr %5, i64 8
  %retval.0.in.in.in.i30 = select i1 %cmp.i.i27, ptr %significand, ptr %m_digits.i.i29
  %retval.0.in.in.i31 = load i32, ptr %retval.0.in.in.in.i30, align 4
  %retval.0.in.i32 = and i32 %retval.0.in.in.i31, 1
  %retval.0.i33 = icmp ne i32 %retval.0.in.i32, 0
  %6 = load ptr, ptr %m_mpz_manager, align 8
  tail call void @_ZN11mpz_managerILb0EE13machine_div2kER3mpzj(ptr noundef nonnull align 8 dereferenceable(600) %6, ptr noundef nonnull align 8 dereferenceable(16) %significand, i32 noundef 1)
  switch i32 %rm, label %sw.default [
    i32 0, label %sw.epilog
    i32 1, label %sw.epilog
    i32 3, label %if.end
    i32 4, label %if.end
    i32 2, label %sw.bb28
  ]

sw.bb28:                                          ; preds = %lor.end
  %7 = or i1 %3, %retval.0.i33
  br i1 %7, label %if.then, label %if.end

sw.default:                                       ; preds = %lor.end
  tail call void @_Z26notify_assertion_violationPKciS0_(ptr noundef nonnull @.str.2, i32 noundef 2118, ptr noundef nonnull @.str.3)
  tail call void @exit(i32 noundef 114) #18
  unreachable

sw.epilog:                                        ; preds = %lor.end, %lor.end
  %8 = and i1 %3, %retval.0.i33
  br i1 %8, label %if.then, label %if.end

if.then:                                          ; preds = %sw.bb28, %sw.epilog
  %9 = load ptr, ptr %m_mpz_manager, align 8
  call void @llvm.lifetime.start.p0(i64 16, ptr nonnull %ref.tmp.i)
  store i32 1, ptr %ref.tmp.i, align 8
  %m_kind.i.i44 = getelementptr inbounds i8, ptr %ref.tmp.i, i64 4
  store i8 0, ptr %m_kind.i.i44, align 4
  %m_ptr.i.i45 = getelementptr inbounds i8, ptr %ref.tmp.i, i64 8
  store ptr null, ptr %m_ptr.i.i45, align 8
  call void @_ZN11mpz_managerILb0EE3addERK3mpzS3_RS1_(ptr noundef nonnull align 8 dereferenceable(600) %9, ptr noundef nonnull align 8 dereferenceable(16) %significand, ptr noundef nonnull align 8 dereferenceable(16) %ref.tmp.i, ptr noundef nonnull align 8 dereferenceable(16) %significand)
  call void @llvm.lifetime.end.p0(i64 16, ptr nonnull %ref.tmp.i)
  br label %if.end

if.end:                                           ; preds = %sw.bb28, %lor.end, %lor.end, %if.then, %sw.epilog
  %10 = load ptr, ptr %m_mpz_manager, align 8
  %m_powers2 = getelementptr inbounds i8, ptr %this, i64 736
  %bf.load = load i32, ptr %o, align 8
  %bf.lshr = lshr i32 %bf.load, 15
  %bf.clear = and i32 %bf.lshr, 65535
  %sub = add nsw i32 %bf.clear, -1
  %call39 = call noundef nonnull align 8 dereferenceable(16) ptr @_ZN11mpf_manager7powers2clEjb(ptr noundef nonnull align 8 dereferenceable(104) %m_powers2, i32 noundef %sub, i1 noundef zeroext false)
  call void @_ZN11mpz_managerILb0EE3subERK3mpzS3_RS1_(ptr noundef nonnull align 8 dereferenceable(600) %10, ptr noundef nonnull align 8 dereferenceable(16) %significand, ptr noundef nonnull align 8 dereferenceable(16) %call39, ptr noundef nonnull align 8 dereferenceable(16) %significand)
  ret void
}